; Function Attrs: mustprogress uwtable
define hidden noalias noundef ptr @_ZN8datatype10param_size4size7mk_plusEPS1_S2_(ptr noundef %0, ptr noundef %1) local_unnamed_addr #4 align 2 personality ptr @__gxx_personality_v0 {
  %3 = tail call noalias noundef ptr @_ZN6memory8allocateEm(i64 noundef 32)
  %4 = getelementptr inbounds nuw i8, ptr %3, i64 8
  store i32 0, ptr %4, align 8, !tbaa !99
  store ptr getelementptr inbounds nuw inrange(-16, 32) (i8, ptr @_ZTVN8datatype10param_size4plusE, i64 16), ptr %3, align 8, !tbaa !68
  %5 = getelementptr inbounds nuw i8, ptr %3, i64 16
  store ptr %0, ptr %5, align 8, !tbaa !106
  %6 = getelementptr inbounds nuw i8, ptr %3, i64 24
  store ptr %1, ptr %6, align 8, !tbaa !108
  %7 = getelementptr inbounds nuw i8, ptr %0, i64 8
  %8 = load i32, ptr %7, align 8, !tbaa !99
  %9 = add i32 %8, 1
  store i32 %9, ptr %7, align 8, !tbaa !99
  %10 = getelementptr inbounds nuw i8, ptr %1, i64 8
  %11 = load i32, ptr %10, align 8, !tbaa !99
  %12 = add i32 %11, 1
  store i32 %12, ptr %10, align 8, !tbaa !99
  ret ptr %3
}